; Function Attrs: mustprogress uwtable
define noundef zeroext i1 @_ZN18OpenImageIO_v2_6_011ImageOutput11set_ioproxyEPNS_10Filesystem7IOProxyE(ptr noundef nonnull align 8 dereferenceable(184) %this, ptr noundef %ioproxy) unnamed_addr #5 align 2 personality ptr @__gxx_personality_v0 {
entry:
  %agg.tmp = alloca %"class.OpenImageIO_v2_6_0::basic_string_view", align 8
  %add.ptr.i.i.i.i.i.i = getelementptr inbounds i8, ptr %this, i64 176
  %0 = load ptr, ptr %add.ptr.i.i.i.i.i.i, align 8
  %m_io = getelementptr inbounds i8, ptr %0, i64 16
  store ptr %ioproxy, ptr %m_io, align 8
  %cmp = icmp eq ptr %ioproxy, null
  br i1 %cmp, label %lor.end, label %lor.rhs

lor.rhs:                                          ; preds = %entry
  store ptr @.str.12, ptr %agg.tmp, align 8
  %m_len.i = getelementptr inbounds i8, ptr %agg.tmp, i64 8
  store i64 7, ptr %m_len.i, align 8
  %vtable = load ptr, ptr %this, align 8
  %vfn = getelementptr inbounds i8, ptr %vtable, i64 24
  %1 = load ptr, ptr %vfn, align 8
  %call2 = call noundef i32 %1(ptr noundef nonnull align 8 dereferenceable(184) %this, ptr noundef nonnull %agg.tmp)
  %tobool = icmp ne i32 %call2, 0
  br label %lor.end

lor.end:                                          ; preds = %lor.rhs, %entry
  %2 = phi i1 [ true, %entry ], [ %tobool, %lor.rhs ]
  ret i1 %2
}